target datalayout = "e-m:e-p270:32:32-p271:32:32-p272:64:64-i64:64-i128:128-f80:128-n8:16:32:64-S128"
target triple = "x86_64-pc-linux-gnu"

%"struct.pkpy::Tuple" = type <{ ptr, [3 x ptr], i32, [4 x i8] }>

; Function Attrs: mustprogress nounwind uwtable
define void @_ZN4pkpy5TupleC2Ei(ptr noundef nonnull align 8 dereferenceable(36) %0, i32 noundef %1) unnamed_addr #4 align 2 {
  %3 = alloca ptr, align 8
  %4 = alloca i32, align 4
  store ptr %0, ptr %3, align 8
  store i32 %1, ptr %4, align 4
  %5 = load ptr, ptr %3, align 8
  %6 = load i32, ptr %4, align 4
  %7 = icmp sle i32 %6, 3
  br i1 %7, label %8, label %12

8:                                                ; preds = %2
  %9 = getelementptr inbounds %"struct.pkpy::Tuple", ptr %5, i32 0, i32 1
  %10 = getelementptr inbounds [3 x ptr], ptr %9, i64 0, i64 0
  %11 = getelementptr inbounds %"struct.pkpy::Tuple", ptr %5, i32 0, i32 0
  store ptr %10, ptr %11, align 8
  br label %18

12:                                               ; preds = %2
  %13 = load i32, ptr %4, align 4
  %14 = sext i32 %13 to i64
  %15 = mul i64 %14, 8
  %16 = call noundef ptr @_ZN4pkpy12pool64_allocEm(i64 noundef %15) #3
  %17 = getelementptr inbounds %"struct.pkpy::Tuple", ptr %5, i32 0, i32 0
  store ptr %16, ptr %17, align 8
  br label %18

18:                                               ; preds = %12, %8
  %19 = load i32, ptr %4, align 4
  %20 = getelementptr inbounds %"struct.pkpy::Tuple", ptr %5, i32 0, i32 2
  store i32 %19, ptr %20, align 8
  ret void
}

; Function Attrs: mustprogress nounwind uwtable
define void @_ZN4pkpy5TupleC2ERKS0_(ptr noundef nonnull align 8 dereferenceable(36) %0, ptr noundef nonnull align 8 dereferenceable(36) %1) unnamed_addr #4 align 2 {
  %3 = alloca ptr, align 8
  %4 = alloca ptr, align 8
  %5 = alloca i32, align 4
  store ptr %0, ptr %3, align 8
  store ptr %1, ptr %4, align 8
  %6 = load ptr, ptr %3, align 8
  %7 = load ptr, ptr %4, align 8
  %8 = getelementptr inbounds %"struct.pkpy::Tuple", ptr %7, i32 0, i32 2
  %9 = load i32, ptr %8, align 8
  call void @_ZN4pkpy5TupleC2Ei(ptr noundef nonnull align 8 dereferenceable(36) %6, i32 noundef %9)
  store i32 0, ptr %5, align 4
  br label %10

10:                                               ; preds = %28, %2
  %11 = load i32, ptr %5, align 4
  %12 = getelementptr inbounds %"struct.pkpy::Tuple", ptr %6, i32 0, i32 2
  %13 = load i32, ptr %12, align 8
  %14 = icmp slt i32 %11, %13
  br i1 %14, label %15, label %31

15:                                               ; preds = %10
  %16 = load ptr, ptr %4, align 8
  %17 = getelementptr inbounds %"struct.pkpy::Tuple", ptr %16, i32 0, i32 0
  %18 = load ptr, ptr %17, align 8
  %19 = load i32, ptr %5, align 4
  %20 = sext i32 %19 to i64
  %21 = getelementptr inbounds ptr, ptr %18, i64 %20
  %22 = load ptr, ptr %21, align 8
  %23 = getelementptr inbounds %"struct.pkpy::Tuple", ptr %6, i32 0, i32 0
  %24 = load ptr, ptr %23, align 8
  %25 = load i32, ptr %5, align 4
  %26 = sext i32 %25 to i64
  %27 = getelementptr inbounds ptr, ptr %24, i64 %26
  store ptr %22, ptr %27, align 8
  br label %28

28:                                               ; preds = %15
  %29 = load i32, ptr %5, align 4
  %30 = add nsw i32 %29, 1
  store i32 %30, ptr %5, align 4
  br label %10, !llvm.loop !4

31:                                               ; preds = %10
  ret void
}