; Function Attrs: mustprogress nounwind uwtable
define void @_ZN4pkpy5TupleC2ERKS0_(ptr noundef nonnull align 8 dereferenceable(36) %0, ptr nocapture noundef nonnull readonly align 8 dereferenceable(36) %1) unnamed_addr #3 align 2 {
  %3 = getelementptr inbounds i8, ptr %1, i64 32
  %4 = load i32, ptr %3, align 8
  %5 = icmp slt i32 %4, 4
  br i1 %5, label %_ZN4pkpy5TupleC2Ei.exit, label %_ZN4pkpy5TupleC2Ei.exit.thread

_ZN4pkpy5TupleC2Ei.exit.thread:                   ; preds = %2
  %6 = zext nneg i32 %4 to i64
  %7 = shl nuw nsw i64 %6, 3
  %8 = tail call noundef ptr @_ZN4pkpy12pool64_allocEm(i64 noundef %7) #10
  store ptr %8, ptr %0, align 8
  %9 = getelementptr inbounds i8, ptr %0, i64 32
  store i32 %4, ptr %9, align 8
  br label %.lr.ph.preheader

_ZN4pkpy5TupleC2Ei.exit:                          ; preds = %2
  %10 = getelementptr inbounds i8, ptr %0, i64 8
  store ptr %10, ptr %0, align 8
  %11 = getelementptr inbounds i8, ptr %0, i64 32
  store i32 %4, ptr %11, align 8
  %12 = icmp sgt i32 %4, 0
  br i1 %12, label %.lr.ph.preheader, label %._crit_edge

.lr.ph.preheader:                                 ; preds = %_ZN4pkpy5TupleC2Ei.exit.thread, %_ZN4pkpy5TupleC2Ei.exit
  %13 = phi ptr [ %9, %_ZN4pkpy5TupleC2Ei.exit.thread ], [ %11, %_ZN4pkpy5TupleC2Ei.exit ]
  br label %.lr.ph

.lr.ph:                                           ; preds = %.lr.ph.preheader, %.lr.ph
  %indvars.iv = phi i64 [ 0, %.lr.ph.preheader ], [ %indvars.iv.next, %.lr.ph ]
  %14 = load ptr, ptr %1, align 8
  %15 = getelementptr inbounds ptr, ptr %14, i64 %indvars.iv
  %16 = load ptr, ptr %15, align 8
  %17 = load ptr, ptr %0, align 8
  %18 = getelementptr inbounds ptr, ptr %17, i64 %indvars.iv
  store ptr %16, ptr %18, align 8
  %indvars.iv.next = add nuw nsw i64 %indvars.iv, 1
  %19 = load i32, ptr %13, align 8
  %20 = sext i32 %19 to i64
  %21 = icmp slt i64 %indvars.iv.next, %20
  br i1 %21, label %.lr.ph, label %._crit_edge, !llvm.loop !4

._crit_edge:                                      ; preds = %.lr.ph, %_ZN4pkpy5TupleC2Ei.exit
  ret void
}